(dp1
S'session'
p2
(dp3
S'picture'
p4
Vhttps://lh3.googleusercontent.com/-XdUIqdMkCWA/AAAAAAAAAAI/AAAAAAAAAAA/4252rscbv5M/photo.jpg
p5
sS'_accessed_time'
p6
F1508700605.8576889
sS'email'
p7
Vjennifer.hsu886@gmail.com
p8
sS'_creation_time'
p9
F1508700594.5315509
sS'name'
p10
VJennifer Hsu
p11
ss.